SF:/home/chad/git/mathjit/src/error.rs
FN:38,_RNvXNtCsg0MUdCQYt5R_7mathjit5errorNtB2_12MathJITErrorNtNtCs264BKr10cB_4core3fmt7Display3fmt
FN:64,_RNvXs0_NtCsg0MUdCQYt5R_7mathjit5errorNtB5_12MathJITErrorINtNtCs264BKr10cB_4core7convert4FromNtNtCs26ZtgXyxV3x_5alloc6string6StringE4from
FN:70,_RNvXs1_NtCsg0MUdCQYt5R_7mathjit5errorNtB5_12MathJITErrorINtNtCs264BKr10cB_4core7convert4FromReE4from
FN:56,_RNvXs_NtCsg0MUdCQYt5R_7mathjit5errorNtB4_12MathJITErrorNtNtCs264BKr10cB_4core5error5Error6source
FN:145,_RNvNtNtCsg0MUdCQYt5R_7mathjit5error5testss_16test_error_clone
FN:113,_RNvNtNtCsg0MUdCQYt5R_7mathjit5error5testss_17test_error_source
FN:100,_RNvNtNtCsg0MUdCQYt5R_7mathjit5error5testss_22test_jit_error_display
FN:169,_RNvNtNtCsg0MUdCQYt5R_7mathjit5error5testss_22test_result_error_case
FN:158,_RNvNtNtCsg0MUdCQYt5R_7mathjit5error5testss_22test_result_type_alias
FN:128,_RNvNtNtCsg0MUdCQYt5R_7mathjit5error5testss_24test_from_str_conversion
FN:137,_RNvNtNtCsg0MUdCQYt5R_7mathjit5error5testss_27test_error_debug_formatting
FN:119,_RNvNtNtCsg0MUdCQYt5R_7mathjit5error5testss_27test_from_string_conversion
FN:81,_RNvNtNtCsg0MUdCQYt5R_7mathjit5error5testss_29test_error_display_formatting
FN:107,_RNvNtNtCsg0MUdCQYt5R_7mathjit5error5testss_31test_optimization_error_display
FN:170,_RNvNvNtNtCsg0MUdCQYt5R_7mathjit5error5testss_22test_result_error_case16failing_function
FN:159,_RNvNvNtNtCsg0MUdCQYt5R_7mathjit5error5testss_22test_result_type_alias13test_function
FNDA:7,_RNvXNtCsg0MUdCQYt5R_7mathjit5errorNtB2_12MathJITErrorNtNtCs264BKr10cB_4core3fmt7Display3fmt
FNDA:1,_RNvXs0_NtCsg0MUdCQYt5R_7mathjit5errorNtB5_12MathJITErrorINtNtCs264BKr10cB_4core7convert4FromNtNtCs26ZtgXyxV3x_5alloc6string6StringE4from
FNDA:1,_RNvXs1_NtCsg0MUdCQYt5R_7mathjit5errorNtB5_12MathJITErrorINtNtCs264BKr10cB_4core7convert4FromReE4from
FNDA:1,_RNvXs_NtCsg0MUdCQYt5R_7mathjit5errorNtB4_12MathJITErrorNtNtCs264BKr10cB_4core5error5Error6source
FNDA:1,_RNvNtNtCsg0MUdCQYt5R_7mathjit5error5testss_16test_error_clone
FNDA:1,_RNvNtNtCsg0MUdCQYt5R_7mathjit5error5testss_17test_error_source
FNDA:1,_RNvNtNtCsg0MUdCQYt5R_7mathjit5error5testss_22test_jit_error_display
FNDA:1,_RNvNtNtCsg0MUdCQYt5R_7mathjit5error5testss_22test_result_error_case
FNDA:1,_RNvNtNtCsg0MUdCQYt5R_7mathjit5error5testss_22test_result_type_alias
FNDA:1,_RNvNtNtCsg0MUdCQYt5R_7mathjit5error5testss_24test_from_str_conversion
FNDA:1,_RNvNtNtCsg0MUdCQYt5R_7mathjit5error5testss_27test_error_debug_formatting
FNDA:1,_RNvNtNtCsg0MUdCQYt5R_7mathjit5error5testss_27test_from_string_conversion
FNDA:1,_RNvNtNtCsg0MUdCQYt5R_7mathjit5error5testss_29test_error_display_formatting
FNDA:1,_RNvNtNtCsg0MUdCQYt5R_7mathjit5error5testss_31test_optimization_error_display
FNDA:1,_RNvNvNtNtCsg0MUdCQYt5R_7mathjit5error5testss_22test_result_error_case16failing_function
FNDA:1,_RNvNvNtNtCsg0MUdCQYt5R_7mathjit5error5testss_22test_result_type_alias13test_function
FNF:16
FNH:16
DA:38,7
DA:39,7
DA:41,1
DA:44,1
DA:46,1
DA:47,1
DA:48,1
DA:49,1
DA:50,1
DA:52,7
DA:56,1
DA:57,1
DA:58,1
DA:64,1
DA:65,1
DA:66,1
DA:70,1
DA:71,1
DA:72,1
DA:81,1
DA:82,1
DA:83,1
DA:85,1
DA:86,1
DA:88,1
DA:89,1
DA:91,1
DA:92,1
DA:94,1
DA:95,1
DA:96,1
DA:100,1
DA:101,1
DA:102,1
DA:103,1
DA:107,1
DA:108,1
DA:109,1
DA:110,1
DA:113,1
DA:114,1
DA:115,1
DA:116,1
DA:119,1
DA:120,1
DA:121,1
DA:122,1
DA:123,0
DA:125,1
DA:128,1
DA:129,1
DA:130,1
DA:131,1
DA:132,0
DA:134,1
DA:137,1
DA:138,1
DA:139,1
DA:140,1
DA:141,1
DA:142,1
DA:145,1
DA:146,1
DA:147,1
DA:149,1
DA:150,1
DA:151,1
DA:153,0
DA:155,1
DA:158,1
DA:159,1
DA:160,1
DA:161,1
DA:163,1
DA:164,1
DA:165,1
DA:166,1
DA:169,1
DA:170,1
DA:171,1
DA:172,1
DA:174,1
DA:175,1
DA:176,1
DA:177,1
DA:178,0
DA:180,1
BRF:0
BRH:0
LF:87
LH:83
end_of_record
SF:/home/chad/git/mathjit/src/final_tagless.rs
FN:974,_RNvNtNtCsg0MUdCQYt5R_7mathjit13final_tagless5testss_16test_direct_eval
FN:1000,_RNvNtNtCsg0MUdCQYt5R_7mathjit13final_tagless5testss_17test_pretty_print
FN:1028,_RNvNtNtCsg0MUdCQYt5R_7mathjit13final_tagless5testss_22test_horner_polynomial
FN:1049,_RNvNtNtCsg0MUdCQYt5R_7mathjit13final_tagless5testss_24test_horner_pretty_print
FN:1065,_RNvNtNtCsg0MUdCQYt5R_7mathjit13final_tagless5testss_26test_polynomial_from_roots
FN:987,_RNvNtNtCsg0MUdCQYt5R_7mathjit13final_tagless5testss_26test_statistical_extension
FN:776,_RINvMs5_NtCsg0MUdCQYt5R_7mathjit13final_taglessNtB6_7JITEval3vardEB8_
FN:459,_RINvMs_NtCsg0MUdCQYt5R_7mathjit13final_taglessNtB5_10DirectEval3vardEB7_
FN:475,_RINvXs0_NtCsg0MUdCQYt5R_7mathjit13final_taglessNtB6_10DirectEvalNtB6_8MathExpr3adddddEB8_
FN:502,_RINvXs0_NtCsg0MUdCQYt5R_7mathjit13final_taglessNtB6_10DirectEvalNtB6_8MathExpr3divdddEB8_
FN:523,_RINvXs0_NtCsg0MUdCQYt5R_7mathjit13final_taglessNtB6_10DirectEvalNtB6_8MathExpr3expdEB8_
FN:493,_RINvXs0_NtCsg0MUdCQYt5R_7mathjit13final_taglessNtB6_10DirectEvalNtB6_8MathExpr3muldddEB8_
FN:515,_RINvXs0_NtCsg0MUdCQYt5R_7mathjit13final_taglessNtB6_10DirectEvalNtB6_8MathExpr3negdEB8_
FN:484,_RINvXs0_NtCsg0MUdCQYt5R_7mathjit13final_taglessNtB6_10DirectEvalNtB6_8MathExpr3subdddEB8_
FN:467,_RINvXs0_NtCsg0MUdCQYt5R_7mathjit13final_taglessNtB6_10DirectEvalNtB6_8MathExpr8constantdEB8_
FN:661,_RINvXs3_NtCsg0MUdCQYt5R_7mathjit13final_taglessNtB6_11PrettyPrintNtB6_8MathExpr3adddddEB8_
FN:679,_RINvXs3_NtCsg0MUdCQYt5R_7mathjit13final_taglessNtB6_11PrettyPrintNtB6_8MathExpr3muldddEB8_
FN:697,_RINvXs3_NtCsg0MUdCQYt5R_7mathjit13final_taglessNtB6_11PrettyPrintNtB6_8MathExpr3powdEB8_
FN:653,_RINvXs3_NtCsg0MUdCQYt5R_7mathjit13final_taglessNtB6_11PrettyPrintNtB6_8MathExpr8constantdEB8_
FN:543,_RINvYNtNtCsg0MUdCQYt5R_7mathjit13final_tagless10DirectEvalNtB5_15StatisticalExpr8logisticdEB7_
FN:311,_RINvNtNtCsg0MUdCQYt5R_7mathjit13final_tagless10polynomial10from_rootsNtB4_10DirectEvaldEB6_
FN:226,_RINvNtNtCsg0MUdCQYt5R_7mathjit13final_tagless10polynomial6hornerNtB4_10DirectEvaldEB6_
FN:226,_RINvNtNtCsg0MUdCQYt5R_7mathjit13final_tagless10polynomial6hornerNtB4_11PrettyPrintdEB6_
FN:270,_RINvNtNtCsg0MUdCQYt5R_7mathjit13final_tagless10polynomial11horner_exprppEB6_
FN:348,_RINvNtNtCsg0MUdCQYt5R_7mathjit13final_tagless10polynomial17horner_derivativeppEB6_
FN:519,_RINvXs0_NtCsg0MUdCQYt5R_7mathjit13final_taglessNtB6_10DirectEvalNtB6_8MathExpr2lnpEB8_
FN:535,_RINvXs0_NtCsg0MUdCQYt5R_7mathjit13final_taglessNtB6_10DirectEvalNtB6_8MathExpr3cospEB8_
FN:511,_RINvXs0_NtCsg0MUdCQYt5R_7mathjit13final_taglessNtB6_10DirectEvalNtB6_8MathExpr3powpEB8_
FN:531,_RINvXs0_NtCsg0MUdCQYt5R_7mathjit13final_taglessNtB6_10DirectEvalNtB6_8MathExpr3sinpEB8_
FN:471,_RINvXs0_NtCsg0MUdCQYt5R_7mathjit13final_taglessNtB6_10DirectEvalNtB6_8MathExpr3varpEB8_
FN:527,_RINvXs0_NtCsg0MUdCQYt5R_7mathjit13final_taglessNtB6_10DirectEvalNtB6_8MathExpr4sqrtpEB8_
FN:705,_RINvXs3_NtCsg0MUdCQYt5R_7mathjit13final_taglessNtB6_11PrettyPrintNtB6_8MathExpr2lnpEB8_
FN:721,_RINvXs3_NtCsg0MUdCQYt5R_7mathjit13final_taglessNtB6_11PrettyPrintNtB6_8MathExpr3cospEB8_
FN:688,_RINvXs3_NtCsg0MUdCQYt5R_7mathjit13final_taglessNtB6_11PrettyPrintNtB6_8MathExpr3divpppEB8_
FN:709,_RINvXs3_NtCsg0MUdCQYt5R_7mathjit13final_taglessNtB6_11PrettyPrintNtB6_8MathExpr3exppEB8_
FN:701,_RINvXs3_NtCsg0MUdCQYt5R_7mathjit13final_taglessNtB6_11PrettyPrintNtB6_8MathExpr3negpEB8_
FN:717,_RINvXs3_NtCsg0MUdCQYt5R_7mathjit13final_taglessNtB6_11PrettyPrintNtB6_8MathExpr3sinpEB8_
FN:670,_RINvXs3_NtCsg0MUdCQYt5R_7mathjit13final_taglessNtB6_11PrettyPrintNtB6_8MathExpr3subpppEB8_
FN:657,_RINvXs3_NtCsg0MUdCQYt5R_7mathjit13final_taglessNtB6_11PrettyPrintNtB6_8MathExpr3varpEB8_
FN:713,_RINvXs3_NtCsg0MUdCQYt5R_7mathjit13final_taglessNtB6_11PrettyPrintNtB6_8MathExpr4sqrtpEB8_
FN:945,_RINvXs7_NtCsg0MUdCQYt5R_7mathjit13final_taglessNtB6_7JITEvalNtB6_8MathExpr2lnpEB8_
FN:899,_RINvXs7_NtCsg0MUdCQYt5R_7mathjit13final_taglessNtB6_7JITEvalNtB6_8MathExpr3addpppEB8_
FN:961,_RINvXs7_NtCsg0MUdCQYt5R_7mathjit13final_taglessNtB6_7JITEvalNtB6_8MathExpr3cospEB8_
FN:928,_RINvXs7_NtCsg0MUdCQYt5R_7mathjit13final_taglessNtB6_7JITEvalNtB6_8MathExpr3divpppEB8_
FN:949,_RINvXs7_NtCsg0MUdCQYt5R_7mathjit13final_taglessNtB6_7JITEvalNtB6_8MathExpr3exppEB8_
FN:919,_RINvXs7_NtCsg0MUdCQYt5R_7mathjit13final_taglessNtB6_7JITEvalNtB6_8MathExpr3mulpppEB8_
FN:941,_RINvXs7_NtCsg0MUdCQYt5R_7mathjit13final_taglessNtB6_7JITEvalNtB6_8MathExpr3negpEB8_
FN:937,_RINvXs7_NtCsg0MUdCQYt5R_7mathjit13final_taglessNtB6_7JITEvalNtB6_8MathExpr3powpEB8_
FN:957,_RINvXs7_NtCsg0MUdCQYt5R_7mathjit13final_taglessNtB6_7JITEvalNtB6_8MathExpr3sinpEB8_
FN:910,_RINvXs7_NtCsg0MUdCQYt5R_7mathjit13final_taglessNtB6_7JITEvalNtB6_8MathExpr3subpppEB8_
FN:895,_RINvXs7_NtCsg0MUdCQYt5R_7mathjit13final_taglessNtB6_7JITEvalNtB6_8MathExpr3varpEB8_
FN:953,_RINvXs7_NtCsg0MUdCQYt5R_7mathjit13final_taglessNtB6_7JITEvalNtB6_8MathExpr4sqrtpEB8_
FN:891,_RINvXs7_NtCsg0MUdCQYt5R_7mathjit13final_taglessNtB6_7JITEvalNtB6_8MathExpr8constantpEB8_
FN:560,_RINvYpNtNtCsg0MUdCQYt5R_7mathjit13final_tagless15StatisticalExpr7sigmoidpEB8_
FN:552,_RINvYpNtNtCsg0MUdCQYt5R_7mathjit13final_tagless15StatisticalExpr8softpluspEB8_
FN:361,_RNCINvNtNtCsg0MUdCQYt5R_7mathjit13final_tagless10polynomial17horner_derivativeppE0B8_
FN:880,_RNvXs6_NtCsg0MUdCQYt5R_7mathjit13final_taglessNtB5_7JITEvalNtB5_11JITMathExpr3cos
FN:852,_RNvXs6_NtCsg0MUdCQYt5R_7mathjit13final_taglessNtB5_7JITEvalNtB5_11JITMathExpr3div
FN:868,_RNvXs6_NtCsg0MUdCQYt5R_7mathjit13final_taglessNtB5_7JITEvalNtB5_11JITMathExpr3exp
FN:860,_RNvXs6_NtCsg0MUdCQYt5R_7mathjit13final_taglessNtB5_7JITEvalNtB5_11JITMathExpr3neg
FN:844,_RNvXs6_NtCsg0MUdCQYt5R_7mathjit13final_taglessNtB5_7JITEvalNtB5_11JITMathExpr3sub
FN:836,_RNvXs6_NtCsg0MUdCQYt5R_7mathjit13final_taglessNtB5_7JITEvalNtB5_11JITMathExpr3var
FN:872,_RNvXs6_NtCsg0MUdCQYt5R_7mathjit13final_taglessNtB5_7JITEvalNtB5_11JITMathExpr4sqrt
FN:645,_RNvMs2_NtCsg0MUdCQYt5R_7mathjit13final_taglessNtB5_11PrettyPrint3var
FN:864,_RNvXs6_NtCsg0MUdCQYt5R_7mathjit13final_taglessNtB5_7JITEvalNtB5_11JITMathExpr2ln
FN:840,_RNvXs6_NtCsg0MUdCQYt5R_7mathjit13final_taglessNtB5_7JITEvalNtB5_11JITMathExpr3add
FN:848,_RNvXs6_NtCsg0MUdCQYt5R_7mathjit13final_taglessNtB5_7JITEvalNtB5_11JITMathExpr3mul
FN:856,_RNvXs6_NtCsg0MUdCQYt5R_7mathjit13final_taglessNtB5_7JITEvalNtB5_11JITMathExpr3pow
FN:876,_RNvXs6_NtCsg0MUdCQYt5R_7mathjit13final_taglessNtB5_7JITEvalNtB5_11JITMathExpr3sin
FN:832,_RNvXs6_NtCsg0MUdCQYt5R_7mathjit13final_taglessNtB5_7JITEvalNtB5_11JITMathExpr8constant
FN:976,_RINvNvNtNtCsg0MUdCQYt5R_7mathjit13final_tagless5testss_16test_direct_eval6linearNtB6_10DirectEvalEB8_
FN:1002,_RINvNvNtNtCsg0MUdCQYt5R_7mathjit13final_tagless5testss_17test_pretty_print9quadraticNtB6_11PrettyPrintEB8_
FN:989,_RINvNvNtNtCsg0MUdCQYt5R_7mathjit13final_tagless5testss_26test_statistical_extension13logistic_exprNtB6_10DirectEvalEB8_
FNDA:1,_RNvNtNtCsg0MUdCQYt5R_7mathjit13final_tagless5testss_16test_direct_eval
FNDA:1,_RNvNtNtCsg0MUdCQYt5R_7mathjit13final_tagless5testss_17test_pretty_print
FNDA:1,_RNvNtNtCsg0MUdCQYt5R_7mathjit13final_tagless5testss_22test_horner_polynomial
FNDA:1,_RNvNtNtCsg0MUdCQYt5R_7mathjit13final_tagless5testss_24test_horner_pretty_print
FNDA:1,_RNvNtNtCsg0MUdCQYt5R_7mathjit13final_tagless5testss_26test_polynomial_from_roots
FNDA:1,_RNvNtNtCsg0MUdCQYt5R_7mathjit13final_tagless5testss_26test_statistical_extension
FNDA:87,_RINvMs5_NtCsg0MUdCQYt5R_7mathjit13final_taglessNtB6_7JITEval3vardEB8_
FNDA:10,_RINvMs_NtCsg0MUdCQYt5R_7mathjit13final_taglessNtB5_10DirectEval3vardEB7_
FNDA:5,_RINvXs0_NtCsg0MUdCQYt5R_7mathjit13final_taglessNtB6_10DirectEvalNtB6_8MathExpr3adddddEB8_
FNDA:1,_RINvXs0_NtCsg0MUdCQYt5R_7mathjit13final_taglessNtB6_10DirectEvalNtB6_8MathExpr3divdddEB8_
FNDA:1,_RINvXs0_NtCsg0MUdCQYt5R_7mathjit13final_taglessNtB6_10DirectEvalNtB6_8MathExpr3expdEB8_
FNDA:8,_RINvXs0_NtCsg0MUdCQYt5R_7mathjit13final_taglessNtB6_10DirectEvalNtB6_8MathExpr3muldddEB8_
FNDA:1,_RINvXs0_NtCsg0MUdCQYt5R_7mathjit13final_taglessNtB6_10DirectEvalNtB6_8MathExpr3negdEB8_
FNDA:8,_RINvXs0_NtCsg0MUdCQYt5R_7mathjit13final_taglessNtB6_10DirectEvalNtB6_8MathExpr3subdddEB8_
FNDA:19,_RINvXs0_NtCsg0MUdCQYt5R_7mathjit13final_taglessNtB6_10DirectEvalNtB6_8MathExpr8constantdEB8_
FNDA:4,_RINvXs3_NtCsg0MUdCQYt5R_7mathjit13final_taglessNtB6_11PrettyPrintNtB6_8MathExpr3adddddEB8_
FNDA:4,_RINvXs3_NtCsg0MUdCQYt5R_7mathjit13final_taglessNtB6_11PrettyPrintNtB6_8MathExpr3muldddEB8_
FNDA:1,_RINvXs3_NtCsg0MUdCQYt5R_7mathjit13final_taglessNtB6_11PrettyPrintNtB6_8MathExpr3powdEB8_
FNDA:7,_RINvXs3_NtCsg0MUdCQYt5R_7mathjit13final_taglessNtB6_11PrettyPrintNtB6_8MathExpr8constantdEB8_
FNDA:1,_RINvYNtNtCsg0MUdCQYt5R_7mathjit13final_tagless10DirectEvalNtB5_15StatisticalExpr8logisticdEB7_
FNDA:4,_RINvNtNtCsg0MUdCQYt5R_7mathjit13final_tagless10polynomial10from_rootsNtB4_10DirectEvaldEB6_
FNDA:3,_RINvNtNtCsg0MUdCQYt5R_7mathjit13final_tagless10polynomial6hornerNtB4_10DirectEvaldEB6_
FNDA:1,_RINvNtNtCsg0MUdCQYt5R_7mathjit13final_tagless10polynomial6hornerNtB4_11PrettyPrintdEB6_
FNDA:0,_RINvNtNtCsg0MUdCQYt5R_7mathjit13final_tagless10polynomial11horner_exprppEB6_
FNDA:0,_RINvNtNtCsg0MUdCQYt5R_7mathjit13final_tagless10polynomial17horner_derivativeppEB6_
FNDA:0,_RINvXs0_NtCsg0MUdCQYt5R_7mathjit13final_taglessNtB6_10DirectEvalNtB6_8MathExpr2lnpEB8_
FNDA:0,_RINvXs0_NtCsg0MUdCQYt5R_7mathjit13final_taglessNtB6_10DirectEvalNtB6_8MathExpr3cospEB8_
FNDA:0,_RINvXs0_NtCsg0MUdCQYt5R_7mathjit13final_taglessNtB6_10DirectEvalNtB6_8MathExpr3powpEB8_
FNDA:0,_RINvXs0_NtCsg0MUdCQYt5R_7mathjit13final_taglessNtB6_10DirectEvalNtB6_8MathExpr3sinpEB8_
FNDA:0,_RINvXs0_NtCsg0MUdCQYt5R_7mathjit13final_taglessNtB6_10DirectEvalNtB6_8MathExpr3varpEB8_
FNDA:0,_RINvXs0_NtCsg0MUdCQYt5R_7mathjit13final_taglessNtB6_10DirectEvalNtB6_8MathExpr4sqrtpEB8_
FNDA:0,_RINvXs3_NtCsg0MUdCQYt5R_7mathjit13final_taglessNtB6_11PrettyPrintNtB6_8MathExpr2lnpEB8_
FNDA:0,_RINvXs3_NtCsg0MUdCQYt5R_7mathjit13final_taglessNtB6_11PrettyPrintNtB6_8MathExpr3cospEB8_
FNDA:0,_RINvXs3_NtCsg0MUdCQYt5R_7mathjit13final_taglessNtB6_11PrettyPrintNtB6_8MathExpr3divpppEB8_
FNDA:0,_RINvXs3_NtCsg0MUdCQYt5R_7mathjit13final_taglessNtB6_11PrettyPrintNtB6_8MathExpr3exppEB8_
FNDA:0,_RINvXs3_NtCsg0MUdCQYt5R_7mathjit13final_taglessNtB6_11PrettyPrintNtB6_8MathExpr3negpEB8_
FNDA:0,_RINvXs3_NtCsg0MUdCQYt5R_7mathjit13final_taglessNtB6_11PrettyPrintNtB6_8MathExpr3sinpEB8_
FNDA:0,_RINvXs3_NtCsg0MUdCQYt5R_7mathjit13final_taglessNtB6_11PrettyPrintNtB6_8MathExpr3subpppEB8_
FNDA:0,_RINvXs3_NtCsg0MUdCQYt5R_7mathjit13final_taglessNtB6_11PrettyPrintNtB6_8MathExpr3varpEB8_
FNDA:0,_RINvXs3_NtCsg0MUdCQYt5R_7mathjit13final_taglessNtB6_11PrettyPrintNtB6_8MathExpr4sqrtpEB8_
FNDA:0,_RINvXs7_NtCsg0MUdCQYt5R_7mathjit13final_taglessNtB6_7JITEvalNtB6_8MathExpr2lnpEB8_
FNDA:0,_RINvXs7_NtCsg0MUdCQYt5R_7mathjit13final_taglessNtB6_7JITEvalNtB6_8MathExpr3addpppEB8_
FNDA:0,_RINvXs7_NtCsg0MUdCQYt5R_7mathjit13final_taglessNtB6_7JITEvalNtB6_8MathExpr3cospEB8_
FNDA:0,_RINvXs7_NtCsg0MUdCQYt5R_7mathjit13final_taglessNtB6_7JITEvalNtB6_8MathExpr3divpppEB8_
FNDA:0,_RINvXs7_NtCsg0MUdCQYt5R_7mathjit13final_taglessNtB6_7JITEvalNtB6_8MathExpr3exppEB8_
FNDA:0,_RINvXs7_NtCsg0MUdCQYt5R_7mathjit13final_taglessNtB6_7JITEvalNtB6_8MathExpr3mulpppEB8_
FNDA:0,_RINvXs7_NtCsg0MUdCQYt5R_7mathjit13final_taglessNtB6_7JITEvalNtB6_8MathExpr3negpEB8_
FNDA:0,_RINvXs7_NtCsg0MUdCQYt5R_7mathjit13final_taglessNtB6_7JITEvalNtB6_8MathExpr3powpEB8_
FNDA:0,_RINvXs7_NtCsg0MUdCQYt5R_7mathjit13final_taglessNtB6_7JITEvalNtB6_8MathExpr3sinpEB8_
FNDA:0,_RINvXs7_NtCsg0MUdCQYt5R_7mathjit13final_taglessNtB6_7JITEvalNtB6_8MathExpr3subpppEB8_
FNDA:0,_RINvXs7_NtCsg0MUdCQYt5R_7mathjit13final_taglessNtB6_7JITEvalNtB6_8MathExpr3varpEB8_
FNDA:0,_RINvXs7_NtCsg0MUdCQYt5R_7mathjit13final_taglessNtB6_7JITEvalNtB6_8MathExpr4sqrtpEB8_
FNDA:0,_RINvXs7_NtCsg0MUdCQYt5R_7mathjit13final_taglessNtB6_7JITEvalNtB6_8MathExpr8constantpEB8_
FNDA:0,_RINvYpNtNtCsg0MUdCQYt5R_7mathjit13final_tagless15StatisticalExpr7sigmoidpEB8_
FNDA:0,_RINvYpNtNtCsg0MUdCQYt5R_7mathjit13final_tagless15StatisticalExpr8softpluspEB8_
FNDA:0,_RNCINvNtNtCsg0MUdCQYt5R_7mathjit13final_tagless10polynomial17horner_derivativeppE0B8_
FNDA:0,_RNvXs6_NtCsg0MUdCQYt5R_7mathjit13final_taglessNtB5_7JITEvalNtB5_11JITMathExpr3cos
FNDA:0,_RNvXs6_NtCsg0MUdCQYt5R_7mathjit13final_taglessNtB5_7JITEvalNtB5_11JITMathExpr3div
FNDA:0,_RNvXs6_NtCsg0MUdCQYt5R_7mathjit13final_taglessNtB5_7JITEvalNtB5_11JITMathExpr3exp
FNDA:0,_RNvXs6_NtCsg0MUdCQYt5R_7mathjit13final_taglessNtB5_7JITEvalNtB5_11JITMathExpr3neg
FNDA:0,_RNvXs6_NtCsg0MUdCQYt5R_7mathjit13final_taglessNtB5_7JITEvalNtB5_11JITMathExpr3sub
FNDA:0,_RNvXs6_NtCsg0MUdCQYt5R_7mathjit13final_taglessNtB5_7JITEvalNtB5_11JITMathExpr3var
FNDA:0,_RNvXs6_NtCsg0MUdCQYt5R_7mathjit13final_taglessNtB5_7JITEvalNtB5_11JITMathExpr4sqrt
FNDA:2,_RNvMs2_NtCsg0MUdCQYt5R_7mathjit13final_taglessNtB5_11PrettyPrint3var
FNDA:1,_RNvXs6_NtCsg0MUdCQYt5R_7mathjit13final_taglessNtB5_7JITEvalNtB5_11JITMathExpr2ln
FNDA:80,_RNvXs6_NtCsg0MUdCQYt5R_7mathjit13final_taglessNtB5_7JITEvalNtB5_11JITMathExpr3add
FNDA:65,_RNvXs6_NtCsg0MUdCQYt5R_7mathjit13final_taglessNtB5_7JITEvalNtB5_11JITMathExpr3mul
FNDA:3,_RNvXs6_NtCsg0MUdCQYt5R_7mathjit13final_taglessNtB5_7JITEvalNtB5_11JITMathExpr3pow
FNDA:59,_RNvXs6_NtCsg0MUdCQYt5R_7mathjit13final_taglessNtB5_7JITEvalNtB5_11JITMathExpr3sin
FNDA:75,_RNvXs6_NtCsg0MUdCQYt5R_7mathjit13final_taglessNtB5_7JITEvalNtB5_11JITMathExpr8constant
FNDA:1,_RINvNvNtNtCsg0MUdCQYt5R_7mathjit13final_tagless5testss_16test_direct_eval6linearNtB6_10DirectEvalEB8_
FNDA:1,_RINvNvNtNtCsg0MUdCQYt5R_7mathjit13final_tagless5testss_17test_pretty_print9quadraticNtB6_11PrettyPrintEB8_
FNDA:1,_RINvNvNtNtCsg0MUdCQYt5R_7mathjit13final_tagless5testss_26test_statistical_extension13logistic_exprNtB6_10DirectEvalEB8_
FNF:72
FNH:32
DA:226,4
DA:227,4
DA:228,4
DA:229,4
DA:231,4
DA:232,1
DA:233,3
DA:235,3
DA:236,1
DA:237,2
DA:240,2
DA:243,4
DA:244,4
DA:245,4
DA:247,2
DA:248,4
DA:270,0
DA:271,0
DA:272,0
DA:273,0
DA:275,0
DA:276,0
DA:277,0
DA:279,0
DA:280,0
DA:281,0
DA:284,0
DA:287,0
DA:288,0
DA:289,0
DA:291,0
DA:292,0
DA:311,4
DA:312,4
DA:313,4
DA:314,4
DA:316,4
DA:317,0
DA:318,4
DA:320,4
DA:322,4
DA:323,4
DA:324,4
DA:325,4
DA:327,4
DA:328,4
DA:348,0
DA:349,0
DA:350,0
DA:351,0
DA:353,0
DA:354,0
DA:355,0
DA:358,0
DA:359,0
DA:361,0
DA:362,0
DA:365,0
DA:366,0
DA:459,10
DA:460,10
DA:461,10
DA:467,19
DA:468,19
DA:469,19
DA:471,0
DA:472,0
DA:473,0
DA:475,5
DA:476,5
DA:477,5
DA:478,5
DA:479,5
DA:481,5
DA:482,5
DA:484,8
DA:485,8
DA:486,8
DA:487,8
DA:488,8
DA:490,8
DA:491,8
DA:493,8
DA:494,8
DA:495,8
DA:496,8
DA:497,8
DA:499,8
DA:500,8
DA:502,1
DA:503,1
DA:504,1
DA:505,1
DA:506,1
DA:508,1
DA:509,1
DA:511,0
DA:512,0
DA:513,0
DA:515,1
DA:516,1
DA:517,1
DA:519,0
DA:520,0
DA:521,0
DA:523,1
DA:524,1
DA:525,1
DA:527,0
DA:528,0
DA:529,0
DA:531,0
DA:532,0
DA:533,0
DA:535,0
DA:536,0
DA:537,0
DA:543,1
DA:544,1
DA:545,1
DA:546,1
DA:547,1
DA:548,1
DA:549,1
DA:552,0
DA:553,0
DA:554,0
DA:555,0
DA:556,0
DA:557,0
DA:560,0
DA:561,0
DA:562,0
DA:645,2
DA:646,2
DA:647,2
DA:653,7
DA:654,7
DA:655,7
DA:657,0
DA:658,0
DA:659,0
DA:661,4
DA:662,4
DA:663,4
DA:664,4
DA:665,4
DA:667,4
DA:668,4
DA:670,0
DA:671,0
DA:672,0
DA:673,0
DA:674,0
DA:676,0
DA:677,0
DA:679,4
DA:680,4
DA:681,4
DA:682,4
DA:683,4
DA:685,4
DA:686,4
DA:688,0
DA:689,0
DA:690,0
DA:691,0
DA:692,0
DA:694,0
DA:695,0
DA:697,1
DA:698,1
DA:699,1
DA:701,0
DA:702,0
DA:703,0
DA:705,0
DA:706,0
DA:707,0
DA:709,0
DA:710,0
DA:711,0
DA:713,0
DA:714,0
DA:715,0
DA:717,0
DA:718,0
DA:719,0
DA:721,0
DA:722,0
DA:723,0
DA:776,87
DA:777,87
DA:778,87
DA:832,75
DA:833,75
DA:834,75
DA:836,0
DA:837,0
DA:838,0
DA:840,80
DA:841,80
DA:842,80
DA:844,0
DA:845,0
DA:846,0
DA:848,65
DA:849,65
DA:850,65
DA:852,0
DA:853,0
DA:854,0
DA:856,3
DA:857,3
DA:858,3
DA:860,0
DA:861,0
DA:862,0
DA:864,1
DA:865,1
DA:866,1
DA:868,0
DA:869,0
DA:870,0
DA:872,0
DA:873,0
DA:874,0
DA:876,59
DA:877,59
DA:878,59
DA:880,0
DA:881,0
DA:882,0
DA:891,0
DA:892,0
DA:893,0
DA:895,0
DA:896,0
DA:897,0
DA:899,0
DA:900,0
DA:901,0
DA:902,0
DA:903,0
DA:907,0
DA:910,0
DA:911,0
DA:912,0
DA:913,0
DA:914,0
DA:916,0
DA:919,0
DA:920,0
DA:921,0
DA:922,0
DA:923,0
DA:925,0
DA:928,0
DA:929,0
DA:930,0
DA:931,0
DA:932,0
DA:934,0
DA:937,0
DA:938,0
DA:939,0
DA:941,0
DA:942,0
DA:943,0
DA:945,0
DA:946,0
DA:947,0
DA:949,0
DA:950,0
DA:951,0
DA:953,0
DA:954,0
DA:955,0
DA:957,0
DA:958,0
DA:959,0
DA:961,0
DA:962,0
DA:963,0
DA:974,1
DA:976,1
DA:977,1
DA:978,1
DA:979,1
DA:980,1
DA:982,1
DA:983,1
DA:984,1
DA:987,1
DA:989,1
DA:990,1
DA:991,1
DA:994,1
DA:996,1
DA:997,1
DA:1000,1
DA:1002,1
DA:1003,1
DA:1004,1
DA:1006,1
DA:1007,1
DA:1008,1
DA:1009,1
DA:1010,1
DA:1011,1
DA:1013,1
DA:1015,1
DA:1018,1
DA:1019,1
DA:1020,1
DA:1021,1
DA:1022,1
DA:1023,1
DA:1024,1
DA:1025,1
DA:1028,1
DA:1033,1
DA:1034,1
DA:1035,1
DA:1036,1
DA:1039,1
DA:1040,1
DA:1041,1
DA:1043,1
DA:1044,1
DA:1045,1
DA:1046,1
DA:1049,1
DA:1053,1
DA:1054,1
DA:1055,1
DA:1058,1
DA:1059,1
DA:1060,1
DA:1061,1
DA:1062,1
DA:1065,1
DA:1069,1
DA:1072,1
DA:1073,1
DA:1076,1
DA:1077,1
DA:1080,1
DA:1081,1
DA:1084,1
DA:1085,1
DA:1086,1
BRF:0
BRH:0
LF:353
LH:188
end_of_record
SF:/home/chad/git/mathjit/src/jit.rs
FN:867,_RNvNtNtCsg0MUdCQYt5R_7mathjit3jit5testss_26test_jit_compiler_creation
FN:999,_RNvNtNtCsg0MUdCQYt5R_7mathjit3jit5testss_26test_variable_count_limits
FN:874,_RNvNtNtCsg0MUdCQYt5R_7mathjit3jit5testss_27test_simple_jit_compilation
FN:982,_RNvNtNtCsg0MUdCQYt5R_7mathjit3jit5testss_31test_multi_variable_error_cases
FN:888,_RNvNtNtCsg0MUdCQYt5R_7mathjit3jit5testss_33test_two_variable_jit_compilation
FN:931,_RNvNtNtCsg0MUdCQYt5R_7mathjit3jit5testss_35test_multi_variable_jit_compilation
FN:906,_RNvNtNtCsg0MUdCQYt5R_7mathjit3jit5testss_36test_two_variable_complex_expression
FN:956,_RNvNtNtCsg0MUdCQYt5R_7mathjit3jit5testss_38test_multi_variable_complex_expression
FN:377,_RNvMs1_NtCsg0MUdCQYt5R_7mathjit3jitNtB5_11JITFunction15call_data_param
FN:389,_RNvMs1_NtCsg0MUdCQYt5R_7mathjit3jitNtB5_11JITFunction16call_data_params
FN:242,_RNvXNtCsg0MUdCQYt5R_7mathjit3jitNtB2_8JITErrorNtNtCs264BKr10cB_4core3fmt7Display3fmt
FN:255,_RNvXs0_NtCsg0MUdCQYt5R_7mathjit3jitNtNtB7_5error12MathJITErrorINtNtCs264BKr10cB_4core7convert4FromNtB5_8JITErrorE4from
FN:828,_RNvMs3_NtCsg0MUdCQYt5R_7mathjit3jitINtNtB7_13final_tagless7JITReprdE16count_operations
FN:304,_RNvMs1_NtCsg0MUdCQYt5R_7mathjit3jitNtB5_11JITFunction11call_single
FN:316,_RNvMs1_NtCsg0MUdCQYt5R_7mathjit3jitNtB5_11JITFunction13call_two_vars
FN:328,_RNvMs1_NtCsg0MUdCQYt5R_7mathjit3jitNtB5_11JITFunction15call_multi_vars
FN:538,_RNvMs2_NtCsg0MUdCQYt5R_7mathjit3jitNtB5_11JITCompiler16compile_two_vars
FN:620,_RNvMs2_NtCsg0MUdCQYt5R_7mathjit3jitNtB5_11JITCompiler18compile_multi_vars
FN:463,_RNvMs2_NtCsg0MUdCQYt5R_7mathjit3jitNtB5_11JITCompiler18compile_single_var
FN:438,_RNvMs2_NtCsg0MUdCQYt5R_7mathjit3jitNtB5_11JITCompiler3new
FN:101,_RNvNtCsg0MUdCQYt5R_7mathjit3jit15generate_cos_ir
FN:79,_RNvNtCsg0MUdCQYt5R_7mathjit3jit15generate_exp_ir
FN:117,_RNvNtCsg0MUdCQYt5R_7mathjit3jit15generate_sin_ir
FN:713,_RNvNtCsg0MUdCQYt5R_7mathjit3jit20generate_ir_for_expr
FN:58,_RNvNtCsg0MUdCQYt5R_7mathjit3jit20generate_ln_1plus_ir
FN:44,_RNvNtCsg0MUdCQYt5R_7mathjit3jit20generate_rational_ir
FN:24,_RNvNtCsg0MUdCQYt5R_7mathjit3jit22generate_polynomial_ir
FN:128,_RNvNtCsg0MUdCQYt5R_7mathjit3jit25generate_integer_power_ir
FN:562,_RNCNvMs2_NtCsg0MUdCQYt5R_7mathjit3jitNtB7_11JITCompiler16compile_two_vars0B9_
FN:599,_RNCNvMs2_NtCsg0MUdCQYt5R_7mathjit3jitNtB7_11JITCompiler16compile_two_varss0_0B9_
FN:595,_RNCNvMs2_NtCsg0MUdCQYt5R_7mathjit3jitNtB7_11JITCompiler16compile_two_varss_0B9_
FN:654,_RNCNvMs2_NtCsg0MUdCQYt5R_7mathjit3jitNtB7_11JITCompiler18compile_multi_vars0B9_
FN:690,_RNCNvMs2_NtCsg0MUdCQYt5R_7mathjit3jitNtB7_11JITCompiler18compile_multi_varss0_0B9_
FN:686,_RNCNvMs2_NtCsg0MUdCQYt5R_7mathjit3jitNtB7_11JITCompiler18compile_multi_varss_0B9_
FN:483,_RNCNvMs2_NtCsg0MUdCQYt5R_7mathjit3jitNtB7_11JITCompiler18compile_single_var0B9_
FN:517,_RNCNvMs2_NtCsg0MUdCQYt5R_7mathjit3jitNtB7_11JITCompiler18compile_single_vars0_0B9_
FN:513,_RNCNvMs2_NtCsg0MUdCQYt5R_7mathjit3jitNtB7_11JITCompiler18compile_single_vars_0B9_
FN:442,_RNCNvMs2_NtCsg0MUdCQYt5R_7mathjit3jitNtB7_11JITCompiler3new0B9_
FN:447,_RNCNvMs2_NtCsg0MUdCQYt5R_7mathjit3jitNtB7_11JITCompiler3news0_0B9_
FN:450,_RNCNvMs2_NtCsg0MUdCQYt5R_7mathjit3jitNtB7_11JITCompiler3news1_0B9_
FN:445,_RNCNvMs2_NtCsg0MUdCQYt5R_7mathjit3jitNtB7_11JITCompiler3news_0B9_
FN:723,_RNCNvNtCsg0MUdCQYt5R_7mathjit3jit20generate_ir_for_expr0B5_
FNDA:1,_RNvNtNtCsg0MUdCQYt5R_7mathjit3jit5testss_26test_jit_compiler_creation
FNDA:1,_RNvNtNtCsg0MUdCQYt5R_7mathjit3jit5testss_26test_variable_count_limits
FNDA:1,_RNvNtNtCsg0MUdCQYt5R_7mathjit3jit5testss_27test_simple_jit_compilation
FNDA:1,_RNvNtNtCsg0MUdCQYt5R_7mathjit3jit5testss_31test_multi_variable_error_cases
FNDA:1,_RNvNtNtCsg0MUdCQYt5R_7mathjit3jit5testss_33test_two_variable_jit_compilation
FNDA:1,_RNvNtNtCsg0MUdCQYt5R_7mathjit3jit5testss_35test_multi_variable_jit_compilation
FNDA:1,_RNvNtNtCsg0MUdCQYt5R_7mathjit3jit5testss_36test_two_variable_complex_expression
FNDA:1,_RNvNtNtCsg0MUdCQYt5R_7mathjit3jit5testss_38test_multi_variable_complex_expression
FNDA:0,_RNvMs1_NtCsg0MUdCQYt5R_7mathjit3jitNtB5_11JITFunction15call_data_param
FNDA:0,_RNvMs1_NtCsg0MUdCQYt5R_7mathjit3jitNtB5_11JITFunction16call_data_params
FNDA:0,_RNvXNtCsg0MUdCQYt5R_7mathjit3jitNtB2_8JITErrorNtNtCs264BKr10cB_4core3fmt7Display3fmt
FNDA:0,_RNvXs0_NtCsg0MUdCQYt5R_7mathjit3jitNtNtB7_5error12MathJITErrorINtNtCs264BKr10cB_4core7convert4FromNtB5_8JITErrorE4from
FNDA:348,_RNvMs3_NtCsg0MUdCQYt5R_7mathjit3jitINtNtB7_13final_tagless7JITReprdE16count_operations
FNDA:1,_RNvMs1_NtCsg0MUdCQYt5R_7mathjit3jitNtB5_11JITFunction11call_single
FNDA:3,_RNvMs1_NtCsg0MUdCQYt5R_7mathjit3jitNtB5_11JITFunction13call_two_vars
FNDA:4,_RNvMs1_NtCsg0MUdCQYt5R_7mathjit3jitNtB5_11JITFunction15call_multi_vars
FNDA:2,_RNvMs2_NtCsg0MUdCQYt5R_7mathjit3jitNtB5_11JITCompiler16compile_two_vars
FNDA:5,_RNvMs2_NtCsg0MUdCQYt5R_7mathjit3jitNtB5_11JITCompiler18compile_multi_vars
FNDA:1,_RNvMs2_NtCsg0MUdCQYt5R_7mathjit3jitNtB5_11JITCompiler18compile_single_var
FNDA:9,_RNvMs2_NtCsg0MUdCQYt5R_7mathjit3jitNtB5_11JITCompiler3new
FNDA:0,_RNvNtCsg0MUdCQYt5R_7mathjit3jit15generate_cos_ir
FNDA:0,_RNvNtCsg0MUdCQYt5R_7mathjit3jit15generate_exp_ir
FNDA:0,_RNvNtCsg0MUdCQYt5R_7mathjit3jit15generate_sin_ir
FNDA:44,_RNvNtCsg0MUdCQYt5R_7mathjit3jit20generate_ir_for_expr
FNDA:0,_RNvNtCsg0MUdCQYt5R_7mathjit3jit20generate_ln_1plus_ir
FNDA:0,_RNvNtCsg0MUdCQYt5R_7mathjit3jit20generate_rational_ir
FNDA:0,_RNvNtCsg0MUdCQYt5R_7mathjit3jit22generate_polynomial_ir
FNDA:2,_RNvNtCsg0MUdCQYt5R_7mathjit3jit25generate_integer_power_ir
FNDA:0,_RNCNvMs2_NtCsg0MUdCQYt5R_7mathjit3jitNtB7_11JITCompiler16compile_two_vars0B9_
FNDA:0,_RNCNvMs2_NtCsg0MUdCQYt5R_7mathjit3jitNtB7_11JITCompiler16compile_two_varss0_0B9_
FNDA:0,_RNCNvMs2_NtCsg0MUdCQYt5R_7mathjit3jitNtB7_11JITCompiler16compile_two_varss_0B9_
FNDA:0,_RNCNvMs2_NtCsg0MUdCQYt5R_7mathjit3jitNtB7_11JITCompiler18compile_multi_vars0B9_
FNDA:0,_RNCNvMs2_NtCsg0MUdCQYt5R_7mathjit3jitNtB7_11JITCompiler18compile_multi_varss0_0B9_
FNDA:0,_RNCNvMs2_NtCsg0MUdCQYt5R_7mathjit3jitNtB7_11JITCompiler18compile_multi_varss_0B9_
FNDA:0,_RNCNvMs2_NtCsg0MUdCQYt5R_7mathjit3jitNtB7_11JITCompiler18compile_single_var0B9_
FNDA:0,_RNCNvMs2_NtCsg0MUdCQYt5R_7mathjit3jitNtB7_11JITCompiler18compile_single_vars0_0B9_
FNDA:0,_RNCNvMs2_NtCsg0MUdCQYt5R_7mathjit3jitNtB7_11JITCompiler18compile_single_vars_0B9_
FNDA:0,_RNCNvMs2_NtCsg0MUdCQYt5R_7mathjit3jitNtB7_11JITCompiler3new0B9_
FNDA:0,_RNCNvMs2_NtCsg0MUdCQYt5R_7mathjit3jitNtB7_11JITCompiler3news0_0B9_
FNDA:0,_RNCNvMs2_NtCsg0MUdCQYt5R_7mathjit3jitNtB7_11JITCompiler3news1_0B9_
FNDA:0,_RNCNvMs2_NtCsg0MUdCQYt5R_7mathjit3jitNtB7_11JITCompiler3news_0B9_
FNDA:0,_RNCNvNtCsg0MUdCQYt5R_7mathjit3jit20generate_ir_for_expr0B5_
FNF:42
FNH:18
DA:24,0
DA:25,0
DA:26,0
DA:27,0
DA:30,0
DA:33,0
DA:34,0
DA:35,0
DA:36,0
DA:37,0
DA:39,0
DA:40,0
DA:44,0
DA:45,0
DA:46,0
DA:47,0
DA:48,0
DA:49,0
DA:50,0
DA:51,0
DA:52,0
DA:53,0
DA:58,0
DA:59,0
DA:60,0
DA:61,0
DA:62,0
DA:63,0
DA:64,0
DA:65,0
DA:66,0
DA:67,0
DA:68,0
DA:69,0
DA:70,0
DA:71,0
DA:72,0
DA:73,0
DA:74,0
DA:79,0
DA:80,0
DA:81,0
DA:82,0
DA:83,0
DA:84,0
DA:85,0
DA:86,0
DA:87,0
DA:88,0
DA:89,0
DA:90,0
DA:91,0
DA:92,0
DA:93,0
DA:94,0
DA:95,0
DA:96,0
DA:101,0
DA:102,0
DA:103,0
DA:104,0
DA:105,0
DA:106,0
DA:107,0
DA:108,0
DA:109,0
DA:110,0
DA:111,0
DA:112,0
DA:117,0
DA:119,0
DA:120,0
DA:122,0
DA:123,0
DA:124,0
DA:128,2
DA:129,0
DA:130,0
DA:131,0
DA:133,0
DA:134,0
DA:136,2
DA:138,0
DA:139,0
DA:140,0
DA:143,0
DA:144,0
DA:147,0
DA:148,0
DA:151,0
DA:152,0
DA:153,0
DA:156,0
DA:157,0
DA:158,0
DA:161,0
DA:162,0
DA:163,0
DA:164,0
DA:167,0
DA:168,0
DA:169,0
DA:172,0
DA:173,0
DA:174,0
DA:175,0
DA:177,0
DA:179,0
DA:181,0
DA:182,0
DA:183,0
DA:184,0
DA:187,0
DA:188,0
DA:189,0
DA:190,0
DA:193,0
DA:194,0
DA:195,0
DA:196,0
DA:199,0
DA:200,0
DA:201,0
DA:202,0
DA:206,0
DA:207,0
DA:208,0
DA:209,0
DA:210,0
DA:211,0
DA:215,0
DA:217,0
DA:218,0
DA:219,0
DA:223,0
DA:226,2
DA:242,0
DA:243,0
DA:244,0
DA:245,0
DA:246,0
DA:247,0
DA:249,0
DA:255,0
DA:256,0
DA:257,0
DA:304,1
DA:305,1
DA:307,1
DA:308,1
DA:309,1
DA:311,0
DA:313,1
DA:316,3
DA:317,3
DA:319,3
DA:320,3
DA:321,3
DA:323,0
DA:325,3
DA:328,4
DA:329,4
DA:330,4
DA:331,4
DA:332,4
DA:333,0
DA:335,0
DA:338,4
DA:340,0
DA:341,0
DA:342,0
DA:345,0
DA:346,0
DA:347,0
DA:350,3
DA:351,3
DA:352,3
DA:355,0
DA:356,0
DA:357,0
DA:360,0
DA:361,0
DA:362,0
DA:365,1
DA:366,1
DA:367,1
DA:369,0
DA:372,0
DA:374,4
DA:377,0
DA:378,0
DA:380,0
DA:381,0
DA:382,0
DA:384,0
DA:386,0
DA:389,0
DA:390,0
DA:391,0
DA:392,0
DA:393,0
DA:394,0
DA:396,0
DA:399,0
DA:401,0
DA:402,0
DA:403,0
DA:406,0
DA:407,0
DA:408,0
DA:411,0
DA:412,0
DA:413,0
DA:416,0
DA:417,0
DA:418,0
DA:420,0
DA:423,0
DA:425,0
DA:438,9
DA:439,9
DA:440,9
DA:441,9
DA:442,9
DA:443,9
DA:444,9
DA:445,9
DA:446,9
DA:447,9
DA:448,9
DA:449,9
DA:450,9
DA:452,9
DA:453,9
DA:454,9
DA:456,9
DA:457,9
DA:458,9
DA:459,9
DA:460,9
DA:463,1
DA:464,1
DA:465,1
DA:466,1
DA:467,1
DA:468,1
DA:471,1
DA:472,1
DA:475,1
DA:480,1
DA:481,1
DA:482,1
DA:483,1
DA:486,1
DA:487,1
DA:489,1
DA:490,1
DA:491,1
DA:492,1
DA:493,1
DA:496,1
DA:499,1
DA:500,1
DA:503,1
DA:506,1
DA:507,1
DA:511,1
DA:512,1
DA:513,1
DA:515,1
DA:516,1
DA:517,1
DA:519,1
DA:521,1
DA:522,1
DA:523,1
DA:524,1
DA:525,1
DA:526,1
DA:527,1
DA:529,1
DA:530,1
DA:531,1
DA:532,1
DA:533,1
DA:534,1
DA:535,1
DA:538,2
DA:539,2
DA:540,2
DA:541,2
DA:542,2
DA:543,2
DA:544,2
DA:547,2
DA:548,2
DA:551,2
DA:554,2
DA:559,2
DA:560,2
DA:561,2
DA:562,2
DA:565,2
DA:566,2
DA:568,2
DA:569,2
DA:570,2
DA:571,2
DA:572,2
DA:575,2
DA:576,2
DA:577,2
DA:580,2
DA:581,2
DA:582,2
DA:585,2
DA:588,2
DA:589,2
DA:593,2
DA:594,2
DA:595,2
DA:597,2
DA:598,2
DA:599,2
DA:601,2
DA:603,2
DA:604,2
DA:605,2
DA:606,2
DA:607,2
DA:608,2
DA:609,2
DA:611,2
DA:612,2
DA:613,2
DA:614,2
DA:615,2
DA:616,2
DA:617,2
DA:620,5
DA:621,5
DA:622,5
DA:623,5
DA:624,5
DA:625,5
DA:626,1
DA:627,1
DA:628,1
DA:629,4
DA:630,4
DA:631,1
DA:632,1
DA:633,1
DA:634,1
DA:635,3
DA:637,3
DA:640,3
DA:641,12
DA:642,12
DA:643,12
DA:644,12
DA:645,12
DA:646,3
DA:651,3
DA:652,3
DA:653,3
DA:654,3
DA:657,3
DA:658,3
DA:660,3
DA:661,3
DA:662,3
DA:663,3
DA:664,3
DA:667,3
DA:670,3
DA:671,12
DA:672,12
DA:673,12
DA:676,3
DA:679,3
DA:680,3
DA:684,3
DA:685,3
DA:686,3
DA:688,3
DA:689,3
DA:690,3
DA:692,3
DA:694,3
DA:695,3
DA:696,3
DA:697,3
DA:698,3
DA:699,3
DA:700,3
DA:702,3
DA:703,3
DA:704,3
DA:705,3
DA:706,3
DA:707,3
DA:708,5
DA:713,44
DA:714,44
DA:715,44
DA:716,44
DA:717,44
DA:718,44
DA:719,2
DA:720,22
DA:721,22
DA:722,22
DA:723,22
DA:724,13
DA:725,13
DA:726,13
DA:727,13
DA:729,0
DA:730,0
DA:731,0
DA:732,0
DA:734,5
DA:735,5
DA:736,5
DA:737,5
DA:739,0
DA:740,0
DA:741,0
DA:742,0
DA:744,0
DA:745,0
DA:746,0
DA:748,2
DA:749,2
DA:752,2
DA:754,2
DA:755,2
DA:756,2
DA:757,0
DA:760,0
DA:761,0
DA:762,0
DA:763,0
DA:764,0
DA:765,0
DA:766,0
DA:768,0
DA:769,0
DA:770,0
DA:771,0
DA:772,0
DA:773,0
DA:776,0
DA:777,0
DA:778,0
DA:779,0
DA:780,0
DA:781,0
DA:785,0
DA:786,0
DA:787,0
DA:788,0
DA:789,0
DA:790,0
DA:793,0
DA:794,0
DA:797,0
DA:798,0
DA:799,0
DA:801,0
DA:802,0
DA:804,0
DA:806,0
DA:807,0
DA:808,0
DA:810,0
DA:811,0
DA:813,0
DA:815,0
DA:816,0
DA:819,0
DA:820,0
DA:823,44
DA:828,348
DA:829,348
DA:830,149
DA:831,74
DA:832,0
DA:833,64
DA:834,0
DA:835,140
DA:836,0
DA:837,0
DA:838,0
DA:839,0
DA:840,59
DA:841,59
DA:843,348
DA:867,1
DA:868,1
DA:869,1
DA:870,1
DA:874,1
DA:876,1
DA:878,1
DA:879,1
DA:882,1
DA:883,1
DA:884,1
DA:888,1
DA:890,1
DA:892,1
DA:893,1
DA:896,1
DA:897,1
DA:900,1
DA:901,1
DA:902,1
DA:906,1
DA:908,1
DA:909,1
DA:910,1
DA:911,1
DA:912,1
DA:913,1
DA:915,1
DA:918,1
DA:919,1
DA:922,1
DA:923,1
DA:924,1
DA:926,1
DA:927,1
DA:931,1
DA:933,1
DA:934,1
DA:935,1
DA:938,1
DA:939,1
DA:940,1
DA:941,1
DA:944,1
DA:945,1
DA:948,1
DA:949,1
DA:951,1
DA:952,1
DA:956,1
DA:958,1
DA:959,1
DA:960,1
DA:961,1
DA:962,1
DA:963,1
DA:964,1
DA:966,1
DA:969,1
DA:970,1
DA:971,1
DA:972,1
DA:975,1
DA:976,1
DA:977,1
DA:978,1
DA:982,1
DA:983,1
DA:984,1
DA:987,1
DA:988,1
DA:991,1
DA:992,1
DA:993,1
DA:994,1
DA:995,1
DA:999,1
DA:1001,1
DA:1002,1
DA:1003,1
DA:1004,1
DA:1005,1
DA:1006,1
DA:1008,1
DA:1010,1
DA:1012,1
DA:1015,1
DA:1016,1
DA:1017,1
DA:1018,1
DA:1021,1
DA:1022,1
DA:1024,1
DA:1025,1
BRF:0
BRH:0
LF:607
LH:341
end_of_record
SF:/home/chad/git/mathjit/src/lib.rs
FN:171,_RNvNtCsg0MUdCQYt5R_7mathjit5testss_24test_basic_final_tagless
FN:172,_RINvNvNtCsg0MUdCQYt5R_7mathjit5testss_24test_basic_final_tagless11simple_exprNtNtB6_13final_tagless10DirectEvalEB6_
FN:125,_RNvMNtCsg0MUdCQYt5R_7mathjit4exprINtB2_4ExprppE3newB4_
FN:144,_RNvMNtCsg0MUdCQYt5R_7mathjit4exprINtB2_4ExprppE3varB4_
FN:138,_RNvMNtCsg0MUdCQYt5R_7mathjit4exprINtB2_4ExprppE7as_reprB4_
FN:153,_RNvMNtCsg0MUdCQYt5R_7mathjit4exprINtB2_4ExprppE8constantB4_
FN:133,_RNvMNtCsg0MUdCQYt5R_7mathjit4exprINtB2_4ExprppE9into_reprB4_
FNDA:1,_RNvNtCsg0MUdCQYt5R_7mathjit5testss_24test_basic_final_tagless
FNDA:1,_RINvNvNtCsg0MUdCQYt5R_7mathjit5testss_24test_basic_final_tagless11simple_exprNtNtB6_13final_tagless10DirectEvalEB6_
FNDA:0,_RNvMNtCsg0MUdCQYt5R_7mathjit4exprINtB2_4ExprppE3newB4_
FNDA:0,_RNvMNtCsg0MUdCQYt5R_7mathjit4exprINtB2_4ExprppE3varB4_
FNDA:0,_RNvMNtCsg0MUdCQYt5R_7mathjit4exprINtB2_4ExprppE7as_reprB4_
FNDA:0,_RNvMNtCsg0MUdCQYt5R_7mathjit4exprINtB2_4ExprppE8constantB4_
FNDA:0,_RNvMNtCsg0MUdCQYt5R_7mathjit4exprINtB2_4ExprppE9into_reprB4_
FNF:7
FNH:2
DA:125,0
DA:126,0
DA:127,0
DA:128,0
DA:129,0
DA:130,0
DA:133,0
DA:134,0
DA:135,0
DA:138,0
DA:139,0
DA:140,0
DA:144,0
DA:145,0
DA:146,0
DA:147,0
DA:149,0
DA:150,0
DA:153,0
DA:154,0
DA:155,0
DA:157,0
DA:158,0
DA:171,1
DA:172,1
DA:173,1
DA:174,1
DA:176,1
DA:177,1
DA:178,1
BRF:0
BRH:0
LF:30
LH:7
end_of_record
SF:/home/chad/git/mathjit/src/symbolic.rs
FN:106,_RNvMs_NtCsg0MUdCQYt5R_7mathjit8symbolicNtB4_17SymbolicOptimizer11with_config
FN:115,_RNvMs_NtCsg0MUdCQYt5R_7mathjit8symbolicNtB4_17SymbolicOptimizer13with_strategy
FN:174,_RNvMs_NtCsg0MUdCQYt5R_7mathjit8symbolicNtB4_17SymbolicOptimizer16record_execution
FN:684,_RNvMs_NtCsg0MUdCQYt5R_7mathjit8symbolicNtB4_17SymbolicOptimizer17expressions_equal
FN:348,_RNvMs_NtCsg0MUdCQYt5R_7mathjit8symbolicNtB4_17SymbolicOptimizer18recommend_strategy
FN:130,_RNvMs_NtCsg0MUdCQYt5R_7mathjit8symbolicNtB4_17SymbolicOptimizer20compilation_strategy
FN:201,_RNvMs_NtCsg0MUdCQYt5R_7mathjit8symbolicNtB4_17SymbolicOptimizer20generate_rust_source
FN:196,_RNvMs_NtCsg0MUdCQYt5R_7mathjit8symbolicNtB4_17SymbolicOptimizer20get_expression_stats
FN:502,_RNvMs_NtCsg0MUdCQYt5R_7mathjit8symbolicNtB4_17SymbolicOptimizer21apply_algebraic_rules
FN:404,_RNvMs_NtCsg0MUdCQYt5R_7mathjit8symbolicNtB4_17SymbolicOptimizer22apply_arithmetic_rules
FN:560,_RNvMs_NtCsg0MUdCQYt5R_7mathjit8symbolicNtB4_17SymbolicOptimizer22apply_constant_folding
FN:234,_RNvMs_NtCsg0MUdCQYt5R_7mathjit8symbolicNtB4_17SymbolicOptimizer24generate_rust_expression
FN:124,_RNvMs_NtCsg0MUdCQYt5R_7mathjit8symbolicNtB4_17SymbolicOptimizer24set_compilation_strategy
FN:662,_RNvMs_NtCsg0MUdCQYt5R_7mathjit8symbolicNtB4_17SymbolicOptimizer25apply_egglog_optimization
FN:135,_RNvMs_NtCsg0MUdCQYt5R_7mathjit8symbolicNtB4_17SymbolicOptimizer27choose_compilation_approach
FN:97,_RNvMs_NtCsg0MUdCQYt5R_7mathjit8symbolicNtB4_17SymbolicOptimizer3new
FN:371,_RNvMs_NtCsg0MUdCQYt5R_7mathjit8symbolicNtB4_17SymbolicOptimizer8optimize
FN:64,_RNvXNtCsg0MUdCQYt5R_7mathjit8symbolicNtB2_19CompilationStrategyNtNtCs264BKr10cB_4core7default7Default7default
FN:730,_RNvXs0_NtCsg0MUdCQYt5R_7mathjit8symbolicNtB5_18OptimizationConfigNtNtCs264BKr10cB_4core7default7Default7default
FN:178,_RNCNvMs_NtCsg0MUdCQYt5R_7mathjit8symbolicNtB6_17SymbolicOptimizer16record_execution0B8_
FN:152,_RNCNvMs_NtCsg0MUdCQYt5R_7mathjit8symbolicNtB6_17SymbolicOptimizer27choose_compilation_approach0B8_
FN:795,_RNvNtNtCsg0MUdCQYt5R_7mathjit8symbolic5testss_21test_constant_folding
FN:809,_RNvNtNtCsg0MUdCQYt5R_7mathjit8symbolic5testss_23test_power_optimization
FN:933,_RNvNtNtCsg0MUdCQYt5R_7mathjit8symbolic5testss_25test_execution_statistics
FN:889,_RNvNtNtCsg0MUdCQYt5R_7mathjit8symbolic5testss_27test_rust_source_generation
FN:902,_RNvNtNtCsg0MUdCQYt5R_7mathjit8symbolic5testss_28test_strategy_recommendation
FN:956,_RNvNtNtCsg0MUdCQYt5R_7mathjit8symbolic5testss_31test_egglog_optimization_config
FN:775,_RNvNtNtCsg0MUdCQYt5R_7mathjit8symbolic5testss_32test_symbolic_optimizer_creation
FN:823,_RNvNtNtCsg0MUdCQYt5R_7mathjit8symbolic5testss_32test_transcendental_optimization
FN:837,_RNvNtNtCsg0MUdCQYt5R_7mathjit8symbolic5testss_34test_compilation_strategy_creation
FN:856,_RNvNtNtCsg0MUdCQYt5R_7mathjit8symbolic5testss_35test_compilation_approach_selection
FN:781,_RNvNtNtCsg0MUdCQYt5R_7mathjit8symbolic5testss_37test_arithmetic_identity_optimization
FN:986,_RNvNtNtCsg0MUdCQYt5R_7mathjit8symbolic5testss_38test_optimization_pipeline_integration
FN:306,_RNCNvMs_NtCsg0MUdCQYt5R_7mathjit8symbolicNtB6_17SymbolicOptimizer18compile_rust_dylib0B8_
FN:332,_RNCNvMs_NtCsg0MUdCQYt5R_7mathjit8symbolicNtB6_17SymbolicOptimizer18compile_rust_dylibs_0B8_
FN:298,_RNvMs_NtCsg0MUdCQYt5R_7mathjit8symbolicNtB4_17SymbolicOptimizer18compile_rust_dylib
FNDA:2,_RNvMs_NtCsg0MUdCQYt5R_7mathjit8symbolicNtB4_17SymbolicOptimizer11with_config
FNDA:1,_RNvMs_NtCsg0MUdCQYt5R_7mathjit8symbolicNtB4_17SymbolicOptimizer13with_strategy
FNDA:8,_RNvMs_NtCsg0MUdCQYt5R_7mathjit8symbolicNtB4_17SymbolicOptimizer16record_execution
FNDA:15,_RNvMs_NtCsg0MUdCQYt5R_7mathjit8symbolicNtB4_17SymbolicOptimizer17expressions_equal
FNDA:2,_RNvMs_NtCsg0MUdCQYt5R_7mathjit8symbolicNtB4_17SymbolicOptimizer18recommend_strategy
FNDA:2,_RNvMs_NtCsg0MUdCQYt5R_7mathjit8symbolicNtB4_17SymbolicOptimizer20compilation_strategy
FNDA:2,_RNvMs_NtCsg0MUdCQYt5R_7mathjit8symbolicNtB4_17SymbolicOptimizer20generate_rust_source
FNDA:1,_RNvMs_NtCsg0MUdCQYt5R_7mathjit8symbolicNtB4_17SymbolicOptimizer20get_expression_stats
FNDA:19,_RNvMs_NtCsg0MUdCQYt5R_7mathjit8symbolicNtB4_17SymbolicOptimizer21apply_algebraic_rules
FNDA:26,_RNvMs_NtCsg0MUdCQYt5R_7mathjit8symbolicNtB4_17SymbolicOptimizer22apply_arithmetic_rules
FNDA:19,_RNvMs_NtCsg0MUdCQYt5R_7mathjit8symbolicNtB4_17SymbolicOptimizer22apply_constant_folding
FNDA:6,_RNvMs_NtCsg0MUdCQYt5R_7mathjit8symbolicNtB4_17SymbolicOptimizer24generate_rust_expression
FNDA:1,_RNvMs_NtCsg0MUdCQYt5R_7mathjit8symbolicNtB4_17SymbolicOptimizer24set_compilation_strategy
FNDA:3,_RNvMs_NtCsg0MUdCQYt5R_7mathjit8symbolicNtB4_17SymbolicOptimizer25apply_egglog_optimization
FNDA:9,_RNvMs_NtCsg0MUdCQYt5R_7mathjit8symbolicNtB4_17SymbolicOptimizer27choose_compilation_approach
FNDA:9,_RNvMs_NtCsg0MUdCQYt5R_7mathjit8symbolicNtB4_17SymbolicOptimizer3new
FNDA:6,_RNvMs_NtCsg0MUdCQYt5R_7mathjit8symbolicNtB4_17SymbolicOptimizer8optimize
FNDA:11,_RNvXNtCsg0MUdCQYt5R_7mathjit8symbolicNtB2_19CompilationStrategyNtNtCs264BKr10cB_4core7default7Default7default
FNDA:12,_RNvXs0_NtCsg0MUdCQYt5R_7mathjit8symbolicNtB5_18OptimizationConfigNtNtCs264BKr10cB_4core7default7Default7default
FNDA:1,_RNCNvMs_NtCsg0MUdCQYt5R_7mathjit8symbolicNtB6_17SymbolicOptimizer16record_execution0B8_
FNDA:1,_RNCNvMs_NtCsg0MUdCQYt5R_7mathjit8symbolicNtB6_17SymbolicOptimizer27choose_compilation_approach0B8_
FNDA:1,_RNvNtNtCsg0MUdCQYt5R_7mathjit8symbolic5testss_21test_constant_folding
FNDA:1,_RNvNtNtCsg0MUdCQYt5R_7mathjit8symbolic5testss_23test_power_optimization
FNDA:1,_RNvNtNtCsg0MUdCQYt5R_7mathjit8symbolic5testss_25test_execution_statistics
FNDA:1,_RNvNtNtCsg0MUdCQYt5R_7mathjit8symbolic5testss_27test_rust_source_generation
FNDA:1,_RNvNtNtCsg0MUdCQYt5R_7mathjit8symbolic5testss_28test_strategy_recommendation
FNDA:1,_RNvNtNtCsg0MUdCQYt5R_7mathjit8symbolic5testss_31test_egglog_optimization_config
FNDA:1,_RNvNtNtCsg0MUdCQYt5R_7mathjit8symbolic5testss_32test_symbolic_optimizer_creation
FNDA:1,_RNvNtNtCsg0MUdCQYt5R_7mathjit8symbolic5testss_32test_transcendental_optimization
FNDA:1,_RNvNtNtCsg0MUdCQYt5R_7mathjit8symbolic5testss_34test_compilation_strategy_creation
FNDA:1,_RNvNtNtCsg0MUdCQYt5R_7mathjit8symbolic5testss_35test_compilation_approach_selection
FNDA:1,_RNvNtNtCsg0MUdCQYt5R_7mathjit8symbolic5testss_37test_arithmetic_identity_optimization
FNDA:1,_RNvNtNtCsg0MUdCQYt5R_7mathjit8symbolic5testss_38test_optimization_pipeline_integration
FNDA:0,_RNCNvMs_NtCsg0MUdCQYt5R_7mathjit8symbolicNtB6_17SymbolicOptimizer18compile_rust_dylib0B8_
FNDA:0,_RNCNvMs_NtCsg0MUdCQYt5R_7mathjit8symbolicNtB6_17SymbolicOptimizer18compile_rust_dylibs_0B8_
FNDA:0,_RNvMs_NtCsg0MUdCQYt5R_7mathjit8symbolicNtB4_17SymbolicOptimizer18compile_rust_dylib
FNF:36
FNH:33
DA:64,11
DA:65,11
DA:66,11
DA:97,9
DA:98,9
DA:99,9
DA:100,9
DA:101,9
DA:102,9
DA:103,9
DA:106,2
DA:107,2
DA:108,2
DA:109,2
DA:110,2
DA:111,2
DA:112,2
DA:115,1
DA:116,1
DA:117,1
DA:118,1
DA:119,1
DA:120,1
DA:121,1
DA:124,1
DA:125,1
DA:126,1
DA:130,2
DA:131,2
DA:132,2
DA:135,9
DA:136,9
DA:137,9
DA:138,9
DA:139,9
DA:140,9
DA:141,2
DA:142,0
DA:144,7
DA:145,7
DA:147,7
DA:148,7
DA:149,7
DA:150,7
DA:152,1
DA:155,1
DA:158,7
DA:160,2
DA:161,1
DA:163,1
DA:164,1
DA:167,5
DA:171,9
DA:174,8
DA:175,8
DA:176,8
DA:177,8
DA:178,8
DA:179,1
DA:180,1
DA:181,1
DA:182,1
DA:183,1
DA:184,1
DA:185,1
DA:187,8
DA:189,8
DA:190,8
DA:191,8
DA:192,8
DA:196,1
DA:197,1
DA:198,1
DA:201,2
DA:202,2
DA:204,2
DA:205,2
DA:206,2
DA:207,2
DA:208,2
DA:209,2
DA:210,2
DA:211,2
DA:212,2
DA:213,2
DA:214,2
DA:215,2
DA:216,2
DA:217,2
DA:218,2
DA:219,2
DA:220,2
DA:221,2
DA:222,2
DA:223,2
DA:224,2
DA:225,2
DA:226,2
DA:227,2
DA:228,2
DA:229,2
DA:230,2
DA:231,2
DA:234,6
DA:235,6
DA:236,2
DA:237,2
DA:239,2
DA:240,2
DA:241,0
DA:242,0
DA:245,1
DA:246,1
DA:247,1
DA:248,1
DA:250,0
DA:251,0
DA:252,0
DA:253,0
DA:255,1
DA:256,1
DA:257,1
DA:258,1
DA:260,0
DA:261,0
DA:262,0
DA:263,0
DA:265,0
DA:266,0
DA:267,0
DA:268,0
DA:270,0
DA:271,0
DA:272,0
DA:274,0
DA:275,0
DA:276,0
DA:278,0
DA:279,0
DA:280,0
DA:282,0
DA:283,0
DA:284,0
DA:286,0
DA:287,0
DA:288,0
DA:290,0
DA:291,0
DA:292,0
DA:295,6
DA:298,0
DA:299,0
DA:300,0
DA:301,0
DA:302,0
DA:303,0
DA:304,0
DA:306,0
DA:307,0
DA:308,0
DA:311,0
DA:312,0
DA:313,0
DA:314,0
DA:315,0
DA:319,0
DA:320,0
DA:321,0
DA:322,0
DA:323,0
DA:324,0
DA:325,0
DA:326,0
DA:327,0
DA:328,0
DA:329,0
DA:330,0
DA:331,0
DA:332,0
DA:333,0
DA:334,0
DA:336,0
DA:337,0
DA:338,0
DA:339,0
DA:340,0
DA:341,0
DA:343,0
DA:344,0
DA:348,2
DA:349,2
DA:351,2
DA:353,1
DA:354,1
DA:356,0
DA:357,0
DA:358,0
DA:359,0
DA:362,1
DA:363,1
DA:364,1
DA:365,1
DA:366,1
DA:368,2
DA:371,6
DA:372,6
DA:373,6
DA:376,11
DA:377,11
DA:380,11
DA:381,11
DA:383,11
DA:384,11
DA:385,0
DA:388,11
DA:389,3
DA:390,8
DA:393,11
DA:394,6
DA:395,5
DA:397,5
DA:400,6
DA:401,6
DA:404,26
DA:405,26
DA:407,4
DA:408,4
DA:409,4
DA:411,4
DA:412,4
DA:413,1
DA:414,2
DA:417,2
DA:418,2
DA:419,2
DA:421,2
DA:422,2
DA:423,0
DA:424,2
DA:425,0
DA:426,2
DA:429,0
DA:430,0
DA:431,0
DA:433,0
DA:434,0
DA:435,0
DA:436,0
DA:439,0
DA:440,0
DA:441,0
DA:443,0
DA:444,0
DA:445,0
DA:448,1
DA:449,1
DA:450,1
DA:452,1
DA:453,1
DA:454,1
DA:455,0
DA:456,0
DA:460,0
DA:461,0
DA:462,0
DA:464,1
DA:465,1
DA:466,1
DA:467,1
DA:468,0
DA:471,0
DA:472,0
DA:473,0
DA:474,0
DA:475,0
DA:478,0
DA:479,0
DA:480,0
DA:481,0
DA:482,0
DA:485,0
DA:486,0
DA:487,0
DA:488,0
DA:489,0
DA:492,0
DA:493,0
DA:494,0
DA:497,18
DA:499,26
DA:502,19
DA:505,19
DA:506,2
DA:507,2
DA:508,2
DA:509,2
DA:511,2
DA:512,2
DA:513,2
DA:514,2
DA:516,0
DA:517,0
DA:518,0
DA:519,0
DA:521,0
DA:522,0
DA:523,0
DA:524,0
DA:526,0
DA:527,0
DA:528,0
DA:529,0
DA:531,0
DA:532,0
DA:533,0
DA:535,0
DA:536,0
DA:537,0
DA:539,0
DA:540,0
DA:541,0
DA:543,0
DA:544,0
DA:545,0
DA:547,0
DA:548,0
DA:549,0
DA:551,0
DA:552,0
DA:553,0
DA:555,15
DA:557,19
DA:560,19
DA:561,19
DA:562,2
DA:563,2
DA:564,2
DA:566,2
DA:567,1
DA:568,1
DA:571,2
DA:572,2
DA:573,2
DA:575,2
DA:576,0
DA:577,2
DA:580,0
DA:581,0
DA:582,0
DA:584,0
DA:585,0
DA:586,0
DA:589,0
DA:590,0
DA:591,0
DA:593,0
DA:594,0
DA:595,0
DA:597,0
DA:600,0
DA:601,0
DA:602,0
DA:604,0
DA:605,0
DA:606,0
DA:608,0
DA:612,0
DA:613,0
DA:614,0
DA:615,0
DA:616,0
DA:619,0
DA:620,0
DA:621,0
DA:622,0
DA:623,0
DA:626,0
DA:627,0
DA:628,0
DA:629,0
DA:630,0
DA:633,0
DA:634,0
DA:635,0
DA:636,0
DA:637,0
DA:640,0
DA:641,0
DA:642,0
DA:643,0
DA:644,0
DA:647,0
DA:648,0
DA:649,0
DA:650,0
DA:651,0
DA:654,15
DA:656,19
DA:662,3
DA:680,3
DA:681,3
DA:684,15
DA:685,15
DA:686,4
DA:687,4
DA:688,1
DA:689,1
DA:691,1
DA:692,1
DA:694,0
DA:695,0
DA:697,0
DA:698,0
DA:700,0
DA:701,0
DA:703,0
DA:704,0
DA:705,0
DA:706,0
DA:707,0
DA:708,0
DA:709,5
DA:711,15
DA:730,12
DA:731,12
DA:732,12
DA:733,12
DA:734,12
DA:735,12
DA:736,12
DA:737,12
DA:738,12
DA:775,1
DA:776,1
DA:777,1
DA:778,1
DA:781,1
DA:782,1
DA:785,1
DA:786,1
DA:788,1
DA:789,1
DA:790,0
DA:792,1
DA:795,1
DA:796,1
DA:799,1
DA:800,1
DA:802,1
DA:803,1
DA:804,0
DA:806,1
DA:809,1
DA:810,1
DA:813,1
DA:814,1
DA:816,1
DA:817,1
DA:818,0
DA:820,1
DA:823,1
DA:824,1
DA:827,1
DA:828,1
DA:830,1
DA:831,1
DA:832,0
DA:834,1
DA:837,1
DA:839,1
DA:840,1
DA:841,1
DA:846,1
DA:847,1
DA:848,1
DA:849,1
DA:850,1
DA:851,1
DA:852,1
DA:853,1
DA:856,1
DA:857,1
DA:858,1
DA:861,1
DA:862,1
DA:865,1
DA:866,1
DA:867,1
DA:868,1
DA:871,6
DA:872,5
DA:873,5
DA:874,4
DA:875,1
DA:876,5
DA:880,1
DA:881,1
DA:884,1
DA:885,1
DA:886,1
DA:889,1
DA:890,1
DA:893,1
DA:894,1
DA:896,1
DA:897,1
DA:898,1
DA:899,1
DA:902,1
DA:904,1
DA:905,1
DA:906,1
DA:909,1
DA:910,1
DA:912,60
DA:913,59
DA:914,59
DA:915,59
DA:916,59
DA:917,59
DA:918,59
DA:919,59
DA:920,59
DA:921,1
DA:924,1
DA:925,1
DA:926,1
DA:927,0
DA:928,0
DA:930,1
DA:933,1
DA:934,1
DA:935,1
DA:938,1
DA:939,1
DA:942,1
DA:943,1
DA:944,1
DA:946,1
DA:947,1
DA:948,1
DA:949,1
DA:951,1
DA:952,1
DA:953,1
DA:956,1
DA:958,1
DA:959,1
DA:962,1
DA:963,1
DA:964,1
DA:965,1
DA:966,1
DA:967,1
DA:968,1
DA:969,1
DA:972,1
DA:973,1
DA:976,1
DA:979,1
DA:980,0
DA:981,1
DA:983,1
DA:986,1
DA:990,1
DA:991,1
DA:992,1
DA:994,1
DA:995,1
DA:996,1
DA:1000,1
DA:1003,1
DA:1004,1
DA:1005,1
DA:1006,0
DA:1007,0
DA:1009,0
DA:1013,1
DA:1014,1
DA:1015,1
DA:1016,1
DA:1017,1
DA:1018,1
BRF:0
BRH:0
LF:588
LH:365
end_of_record